target datalayout = "e-m:e-p270:32:32-p271:32:32-p272:64:64-i64:64-i128:128-f80:128-n8:16:32:64-S128"
target triple = "x86_64-pc-linux-gnu"

%"class.cv::FileStorage" = type { ptr, i32, %"class.std::__cxx11::basic_string", %"struct.cv::Ptr" }
%"class.std::__cxx11::basic_string" = type { %"struct.std::__cxx11::basic_string<char>::_Alloc_hider", i64, %union.anon }
%"struct.std::__cxx11::basic_string<char>::_Alloc_hider" = type { ptr }
%union.anon = type { i64, [8 x i8] }
%"struct.cv::Ptr" = type { %"class.std::shared_ptr" }
%"class.std::shared_ptr" = type { %"class.std::__shared_ptr" }
%"class.std::__shared_ptr" = type { ptr, %"class.std::__shared_count" }
%"class.std::__shared_count" = type { ptr }
%"class.cv::dnn::HalideScheduler" = type { %"class.cv::FileStorage" }

; Function Attrs: mustprogress nounwind uwtable
define hidden void @_ZN2cv3dnn15HalideSchedulerD2Ev(ptr noundef nonnull align 8 dereferenceable(64) %0) unnamed_addr #5 align 2 personality ptr @__gxx_personality_v0 {
  %2 = alloca ptr, align 8
  store ptr %0, ptr %2, align 8, !tbaa !3
  %3 = load ptr, ptr %2, align 8
  %4 = getelementptr inbounds nuw %"class.cv::dnn::HalideScheduler", ptr %3, i32 0, i32 0
  %5 = invoke noundef zeroext i1 @_ZNK2cv11FileStorage8isOpenedEv(ptr noundef nonnull align 8 dereferenceable(64) %4)
          to label %6 unwind label %12

6:                                                ; preds = %1
  br i1 %5, label %7, label %10

7:                                                ; preds = %6
  %8 = getelementptr inbounds nuw %"class.cv::dnn::HalideScheduler", ptr %3, i32 0, i32 0
  invoke void @_ZN2cv11FileStorage7releaseEv(ptr noundef nonnull align 8 dereferenceable(64) %8)
          to label %9 unwind label %12

9:                                                ; preds = %7
  br label %10

10:                                               ; preds = %9, %6
  %11 = getelementptr inbounds nuw %"class.cv::dnn::HalideScheduler", ptr %3, i32 0, i32 0
  call void @_ZN2cv11FileStorageD1Ev(ptr noundef nonnull align 8 dereferenceable(64) %11) #3
  ret void

12:                                               ; preds = %7, %1
  %13 = landingpad { ptr, i32 }
          catch ptr null
  %14 = extractvalue { ptr, i32 } %13, 0
  call void @__clang_call_terminate(ptr %14) #15
  unreachable
}