; Function Attrs: mustprogress nounwind uwtable
define hidden void @_ZN2cv3dnn15HalideSchedulerD2Ev(ptr noundef nonnull align 8 dereferenceable(64) %0) unnamed_addr #5 align 2 personality ptr @__gxx_personality_v0 {
  %2 = invoke noundef zeroext i1 @_ZNK2cv11FileStorage8isOpenedEv(ptr noundef nonnull align 8 dereferenceable(64) %0)
          to label %3 unwind label %6

3:                                                ; preds = %1
  br i1 %2, label %4, label %5

4:                                                ; preds = %3
  invoke void @_ZN2cv11FileStorage7releaseEv(ptr noundef nonnull align 8 dereferenceable(64) %0)
          to label %5 unwind label %6

5:                                                ; preds = %4, %3
  tail call void @_ZN2cv11FileStorageD1Ev(ptr noundef nonnull align 8 dereferenceable(64) %0) #13
  ret void

6:                                                ; preds = %4, %1
  %7 = landingpad { ptr, i32 }
          catch ptr null
  %8 = extractvalue { ptr, i32 } %7, 0
  tail call void @__clang_call_terminate(ptr %8) #15
  unreachable
}